target datalayout = "e-m:e-p270:32:32-p271:32:32-p272:64:64-i64:64-i128:128-f80:128-n8:16:32:64-S128"
target triple = "x86_64-pc-linux-gnu"

%struct._object = type { %union.anon, ptr }
%union.anon = type { i64 }

@.str.38 = private unnamed_addr constant [29 x i8] c"check_pyobject_null_is_freed\00", align 1
@PyExc_AssertionError = external global ptr, align 8
@_Py_NoneStruct = external global %struct._object, align 8
@.str.222 = private unnamed_addr constant [28 x i8] c"object is not seen as freed\00", align 1

; Function Attrs: nounwind uwtable
define internal ptr @test_pyobject_is_freed(ptr noundef %0, ptr noundef %1) #0 {
  %3 = alloca ptr, align 8
  %4 = alloca ptr, align 8
  %5 = alloca ptr, align 8
  store ptr %0, ptr %4, align 8, !tbaa !46
  store ptr %1, ptr %5, align 8, !tbaa !3
  %6 = load ptr, ptr %5, align 8, !tbaa !3
  %7 = call i32 @_PyObject_IsFreed(ptr noundef %6)
  %8 = icmp ne i32 %7, 0
  br i1 %8, label %11, label %9

9:                                                ; preds = %2
  %10 = load ptr, ptr @PyExc_AssertionError, align 8, !tbaa !3
  call void @PyErr_SetString(ptr noundef %10, ptr noundef @.str.222)
  store ptr null, ptr %3, align 8
  br label %12

11:                                               ; preds = %2
  store ptr @_Py_NoneStruct, ptr %3, align 8
  br label %12

12:                                               ; preds = %11, %9
  %13 = load ptr, ptr %3, align 8
  ret ptr %13
}

; Function Attrs: nounwind uwtable
define internal ptr @check_pyobject_null_is_freed(ptr noundef %0, ptr noundef %1) #0 {
  %3 = alloca ptr, align 8
  %4 = alloca ptr, align 8
  %5 = alloca ptr, align 8
  store ptr %0, ptr %3, align 8, !tbaa !3
  store ptr %1, ptr %4, align 8, !tbaa !3
  call void @llvm.lifetime.start.p0(i64 8, ptr %5) #10
  store ptr null, ptr %5, align 8, !tbaa !3
  %6 = load ptr, ptr %5, align 8, !tbaa !3
  %7 = call ptr @test_pyobject_is_freed(ptr noundef @.str.38, ptr noundef %6)
  call void @llvm.lifetime.end.p0(i64 8, ptr %5) #10
  ret ptr %7
}