; Function Attrs: nounwind uwtable
define internal noundef ptr @check_pyobject_null_is_freed(ptr readnone captures(none) %0, ptr readnone captures(none) %1) #0 {
  %3 = tail call i32 @_PyObject_IsFreed(ptr noundef null) #11
  %.not.i = icmp eq i32 %3, 0
  br i1 %.not.i, label %4, label %test_pyobject_is_freed.exit

4:                                                ; preds = %2
  %5 = load ptr, ptr @PyExc_AssertionError, align 8, !tbaa !9
  tail call void @PyErr_SetString(ptr noundef %5, ptr noundef nonnull @.str.222) #11
  br label %test_pyobject_is_freed.exit

test_pyobject_is_freed.exit:                      ; preds = %2, %4
  %.0.i = phi ptr [ null, %4 ], [ @_Py_NoneStruct, %2 ]
  ret ptr %.0.i
}